; Function Attrs: nounwind uwtable
define internal void @__cxx_global_array_dtor(ptr nocapture readnone %0) #6 section ".text.startup" {
  %2 = load ptr, ptr getelementptr inbounds (i8, ptr @_ZZN4llvm15TypeSetByHwMode9intersectERNS_19MachineValueTypeSetERKS1_E9WildParts, i64 24), align 8
  %.not.i.i.i = icmp eq ptr %2, null
  br i1 %.not.i.i.i, label %_ZNSt4pairIN4llvm3MVTESt8functionIFbS1_EEED2Ev.exit, label %3

3:                                                ; preds = %1
  %4 = tail call noundef zeroext i1 %2(ptr noundef nonnull align 8 dereferenceable(16) getelementptr inbounds nuw (i8, ptr @_ZZN4llvm15TypeSetByHwMode9intersectERNS_19MachineValueTypeSetERKS1_E9WildParts, i64 8), ptr noundef nonnull align 8 dereferenceable(16) getelementptr inbounds nuw (i8, ptr @_ZZN4llvm15TypeSetByHwMode9intersectERNS_19MachineValueTypeSetERKS1_E9WildParts, i64 8), i32 noundef 3) #29
  br label %_ZNSt4pairIN4llvm3MVTESt8functionIFbS1_EEED2Ev.exit

_ZNSt4pairIN4llvm3MVTESt8functionIFbS1_EEED2Ev.exit: ; preds = %1, %3
  ret void
}